/*
 * Intel ACPI Component Architecture
 * AML/ASL+ Disassembler version 20230628 (64-bit version)
 * Copyright (c) 2000 - 2023 Intel Corporation
 * 
 * Disassembly of SLIC.aml
 *
 * ACPI Data Table [SLIC]
 *
 * Format: [HexOffset DecimalOffset ByteLength]  FieldName : FieldValue (in hex)
 */

[000h 0000 004h]                   Signature : "SLIC"    [Software Licensing Description Table]
[004h 0004 004h]                Table Length : 00000176
[008h 0008 001h]                    Revision : 01
[009h 0009 001h]                    Checksum : 9B
[00Ah 0010 006h]                      Oem ID : "LENOVO"
[010h 0016 008h]                Oem Table ID : "CB-01   "
[018h 0024 004h]                Oem Revision : 00000001
[01Ch 0028 004h]             Asl Compiler ID : "ACPI"
[020h 0032 004h]       Asl Compiler Revision : 00040000

[024h 0036 152h] Software Licensing Structure : 53 4C 49 43 76 01 00 00 01 9B 4C 45 4E 4F 56 4F /* SLICv.....LENOVO */\
/* 034h 0052  16 */                            43 42 2D 30 31 20 20 20 01 00 00 00 41 43 50 49 /* CB-01   ....ACPI */\
/* 044h 0068  16 */                            00 00 04 00 00 00 00 00 9C 00 00 00 06 02 00 00 /* ................ */\
/* 054h 0084  16 */                            00 24 00 00 52 53 41 31 00 04 00 00 01 00 01 00 /* .$..RSA1........ */\
/* 064h 0100  16 */                            69 16 4A 9F B1 4B 3A FB 80 20 AA AF C4 F9 3E C1 /* i.J..K:.. ....>. */\
/* 074h 0116  16 */                            80 49 EE 6A 65 26 72 1E CD BF 5F 2F 96 D6 C0 0A /* .I.je&r..._/.... */\
/* 084h 0132  16 */                            92 F5 06 B5 00 B2 3B 29 02 E2 4C 8D C2 F2 BC 41 /* ......;)..L....A */\
/* 094h 0148  16 */                            77 9C 70 F0 F3 1B 09 D2 63 5A DC A8 83 F8 5E C9 /* w.p.....cZ....^. */\
/* 0A4h 0164  16 */                            15 95 F9 FA FD DC 05 B7 4D 67 7F 2D B3 84 33 20 /* ........Mg.-..3  */\
/* 0B4h 0180  16 */                            E1 D1 79 2A A7 6A 77 D1 B6 20 2A 76 42 C5 D5 E9 /* ..y*.jw.. *vB... */\
/* 0C4h 0196  16 */                            B6 43 40 55 44 C3 C9 37 99 5F 41 97 70 F3 D1 F6 /* .C@UD..7._A.p... */\
/* 0D4h 0212  16 */                            07 EC 7B 1A 29 A1 C1 F1 91 FD 48 86 6E 3E CE CB /* ..{.).....H.n>.. */\
/* 0E4h 0228  16 */                            01 00 00 00 B6 00 00 00 00 20 00 00 49 4E 53 59 /* ......... ..INSY */\
/* 0F4h 0244  16 */                            44 45 49 4E 53 59 44 45 30 30 57 49 4E 44 4F 57 /* DEINSYDE00WINDOW */\
/* 104h 0260  16 */                            53 20 01 00 02 00 00 00 00 00 00 00 00 00 00 00 /* S .............. */\
/* 114h 0276  16 */                            00 00 00 00 00 00 00 00 00 00 00 00 00 00 00 00 /* ................ */\
/* 124h 0292  16 */                            00 00 00 00 00 00 D9 54 93 7A 68 04 4A 44 81 CE /* .......T.zh.JD.. */\
/* 134h 0308  16 */                            0B F6 17 D8 90 DF 00 00 01 00 00 00 00 00 5F 46 /* .............._F */\
/* 144h 0324  16 */                            56 48 FF 8E FF FF 48 00 B1 4C 00 00 00 01 01 00 /* VH....H..L...... */\
/* 154h 0340  16 */                            00 00 00 00 01 00 00 00 00 00 00 00 00 00 54 F0 /* ..............T. */\
/* 164h 0356  16 */                            0C 6F 6A AE 8C 41 A7 CE 3C 7A 7C D7 4E C0 4E D4 /* .oj..A..<z|.N.N. */\
/* 174h 0372   2 */                            02 40                                           /* .@ */\

Raw Table Data: Length 374 (0x176)

    0000: 53 4C 49 43 76 01 00 00 01 9B 4C 45 4E 4F 56 4F  // SLICv.....LENOVO
    0010: 43 42 2D 30 31 20 20 20 01 00 00 00 41 43 50 49  // CB-01   ....ACPI
    0020: 00 00 04 00 00 00 00 00 9C 00 00 00 06 02 00 00  // ................
    0030: 00 24 00 00 52 53 41 31 00 04 00 00 01 00 01 00  // .$..RSA1........
    0040: 69 16 4A 9F B1 4B 3A FB 80 20 AA AF C4 F9 3E C1  // i.J..K:.. ....>.
    0050: 80 49 EE 6A 65 26 72 1E CD BF 5F 2F 96 D6 C0 0A  // .I.je&r..._/....
    0060: 92 F5 06 B5 00 B2 3B 29 02 E2 4C 8D C2 F2 BC 41  // ......;)..L....A
    0070: 77 9C 70 F0 F3 1B 09 D2 63 5A DC A8 83 F8 5E C9  // w.p.....cZ....^.
    0080: 15 95 F9 FA FD DC 05 B7 4D 67 7F 2D B3 84 33 20  // ........Mg.-..3 
    0090: E1 D1 79 2A A7 6A 77 D1 B6 20 2A 76 42 C5 D5 E9  // ..y*.jw.. *vB...
    00A0: B6 43 40 55 44 C3 C9 37 99 5F 41 97 70 F3 D1 F6  // .C@UD..7._A.p...
    00B0: 07 EC 7B 1A 29 A1 C1 F1 91 FD 48 86 6E 3E CE CB  // ..{.).....H.n>..
    00C0: 01 00 00 00 B6 00 00 00 00 20 00 00 49 4E 53 59  // ......... ..INSY
    00D0: 44 45 49 4E 53 59 44 45 30 30 57 49 4E 44 4F 57  // DEINSYDE00WINDOW
    00E0: 53 20 01 00 02 00 00 00 00 00 00 00 00 00 00 00  // S ..............
    00F0: 00 00 00 00 00 00 00 00 00 00 00 00 00 00 00 00  // ................
    0100: 00 00 00 00 00 00 D9 54 93 7A 68 04 4A 44 81 CE  // .......T.zh.JD..
    0110: 0B F6 17 D8 90 DF 00 00 01 00 00 00 00 00 5F 46  // .............._F
    0120: 56 48 FF 8E FF FF 48 00 B1 4C 00 00 00 01 01 00  // VH....H..L......
    0130: 00 00 00 00 01 00 00 00 00 00 00 00 00 00 54 F0  // ..............T.
    0140: 0C 6F 6A AE 8C 41 A7 CE 3C 7A 7C D7 4E C0 4E D4  // .oj..A..<z|.N.N.
    0150: 02 40 13 2D 00 F8 FB 2C 00 01 88 7D 00 00 01 EA  // .@.-...,...}....
    0160: 2C 00 00 88 7D 00 00 1C 28 87 6E FB B4 69 39 3F  // ,...}...(.n..i9?
    0170: DE FF CC CC 64 90                                // ....d.
